target datalayout = "e-m:e-p270:32:32-p271:32:32-p272:64:64-i64:64-i128:128-f80:128-n8:16:32:64-S128"
target triple = "x86_64-pc-linux-gnu"

%struct.mbedtls_md_info_t = type { ptr, i32, i8, i8 }
%struct.mbedtls_md_context_t = type { ptr, ptr, ptr }

; Function Attrs: mustprogress uwtable
define hidden i32 @mbedtls_md_starts(ptr noundef %0) #1 {
  %2 = alloca i32, align 4
  %3 = alloca ptr, align 8
  store ptr %0, ptr %3, align 8, !tbaa !10
  %4 = load ptr, ptr %3, align 8, !tbaa !10
  %5 = icmp eq ptr %4, null
  br i1 %5, label %11, label %6

6:                                                ; preds = %1
  %7 = load ptr, ptr %3, align 8, !tbaa !10
  %8 = getelementptr inbounds nuw %struct.mbedtls_md_context_t, ptr %7, i32 0, i32 0
  %9 = load ptr, ptr %8, align 8, !tbaa !12
  %10 = icmp eq ptr %9, null
  br i1 %10, label %11, label %12

11:                                               ; preds = %6, %1
  store i32 -20736, ptr %2, align 4
  br label %34

12:                                               ; preds = %6
  %13 = load ptr, ptr %3, align 8, !tbaa !10
  %14 = getelementptr inbounds nuw %struct.mbedtls_md_context_t, ptr %13, i32 0, i32 0
  %15 = load ptr, ptr %14, align 8, !tbaa !12
  %16 = getelementptr inbounds nuw %struct.mbedtls_md_info_t, ptr %15, i32 0, i32 1
  %17 = load i32, ptr %16, align 8, !tbaa !16
  switch i32 %17, label %33 [
    i32 2, label %18
    i32 3, label %23
    i32 4, label %28
  ]

18:                                               ; preds = %12
  %19 = load ptr, ptr %3, align 8, !tbaa !10
  %20 = getelementptr inbounds nuw %struct.mbedtls_md_context_t, ptr %19, i32 0, i32 1
  %21 = load ptr, ptr %20, align 8, !tbaa !15
  %22 = call i32 @mbedtls_sha1_starts(ptr noundef %21)
  store i32 %22, ptr %2, align 4
  br label %34

23:                                               ; preds = %12
  %24 = load ptr, ptr %3, align 8, !tbaa !10
  %25 = getelementptr inbounds nuw %struct.mbedtls_md_context_t, ptr %24, i32 0, i32 1
  %26 = load ptr, ptr %25, align 8, !tbaa !15
  %27 = call i32 @mbedtls_sha256_starts(ptr noundef %26, i32 noundef 1)
  store i32 %27, ptr %2, align 4
  br label %34

28:                                               ; preds = %12
  %29 = load ptr, ptr %3, align 8, !tbaa !10
  %30 = getelementptr inbounds nuw %struct.mbedtls_md_context_t, ptr %29, i32 0, i32 1
  %31 = load ptr, ptr %30, align 8, !tbaa !15
  %32 = call i32 @mbedtls_sha256_starts(ptr noundef %31, i32 noundef 0)
  store i32 %32, ptr %2, align 4
  br label %34

33:                                               ; preds = %12
  store i32 -20736, ptr %2, align 4
  br label %34

34:                                               ; preds = %33, %28, %23, %18, %11
  %35 = load i32, ptr %2, align 4
  ret i32 %35
}

; Function Attrs: mustprogress uwtable
define hidden i32 @mbedtls_md_hmac_finish(ptr noundef %0, ptr noundef %1) #1 {
  %3 = alloca i32, align 4
  %4 = alloca ptr, align 8
  %5 = alloca ptr, align 8
  %6 = alloca i32, align 4
  %7 = alloca [32 x i8], align 16
  %8 = alloca ptr, align 8
  %9 = alloca i32, align 4
  store ptr %0, ptr %4, align 8, !tbaa !10
  store ptr %1, ptr %5, align 8, !tbaa !3
  call void @llvm.lifetime.start.p0(i64 4, ptr %6) #9
  store i32 -110, ptr %6, align 4, !tbaa !21
  call void @llvm.lifetime.start.p0(i64 32, ptr %7) #9
  call void @llvm.lifetime.start.p0(i64 8, ptr %8) #9
  %10 = load ptr, ptr %4, align 8, !tbaa !10
  %11 = icmp eq ptr %10, null
  br i1 %11, label %22, label %12

12:                                               ; preds = %2
  %13 = load ptr, ptr %4, align 8, !tbaa !10
  %14 = getelementptr inbounds nuw %struct.mbedtls_md_context_t, ptr %13, i32 0, i32 0
  %15 = load ptr, ptr %14, align 8, !tbaa !12
  %16 = icmp eq ptr %15, null
  br i1 %16, label %22, label %17

17:                                               ; preds = %12
  %18 = load ptr, ptr %4, align 8, !tbaa !10
  %19 = getelementptr inbounds nuw %struct.mbedtls_md_context_t, ptr %18, i32 0, i32 2
  %20 = load ptr, ptr %19, align 8, !tbaa !18
  %21 = icmp eq ptr %20, null
  br i1 %21, label %22, label %23

22:                                               ; preds = %17, %12, %2
  store i32 -20736, ptr %3, align 4
  store i32 1, ptr %9, align 4
  br label %77

23:                                               ; preds = %17
  %24 = load ptr, ptr %4, align 8, !tbaa !10
  %25 = getelementptr inbounds nuw %struct.mbedtls_md_context_t, ptr %24, i32 0, i32 2
  %26 = load ptr, ptr %25, align 8, !tbaa !18
  %27 = load ptr, ptr %4, align 8, !tbaa !10
  %28 = getelementptr inbounds nuw %struct.mbedtls_md_context_t, ptr %27, i32 0, i32 0
  %29 = load ptr, ptr %28, align 8, !tbaa !12
  %30 = getelementptr inbounds nuw %struct.mbedtls_md_info_t, ptr %29, i32 0, i32 3
  %31 = load i8, ptr %30, align 1, !tbaa !19
  %32 = zext i8 %31 to i32
  %33 = sext i32 %32 to i64
  %34 = getelementptr inbounds i8, ptr %26, i64 %33
  store ptr %34, ptr %8, align 8, !tbaa !3
  %35 = load ptr, ptr %4, align 8, !tbaa !10
  %36 = getelementptr inbounds [32 x i8], ptr %7, i64 0, i64 0
  %37 = call i32 @mbedtls_md_finish(ptr noundef %35, ptr noundef %36)
  store i32 %37, ptr %6, align 4, !tbaa !21
  %38 = icmp ne i32 %37, 0
  br i1 %38, label %39, label %41

39:                                               ; preds = %23
  %40 = load i32, ptr %6, align 4, !tbaa !21
  store i32 %40, ptr %3, align 4
  store i32 1, ptr %9, align 4
  br label %77

41:                                               ; preds = %23
  %42 = load ptr, ptr %4, align 8, !tbaa !10
  %43 = call i32 @mbedtls_md_starts(ptr noundef %42)
  store i32 %43, ptr %6, align 4, !tbaa !21
  %44 = icmp ne i32 %43, 0
  br i1 %44, label %45, label %47

45:                                               ; preds = %41
  %46 = load i32, ptr %6, align 4, !tbaa !21
  store i32 %46, ptr %3, align 4
  store i32 1, ptr %9, align 4
  br label %77

47:                                               ; preds = %41
  %48 = load ptr, ptr %4, align 8, !tbaa !10
  %49 = load ptr, ptr %8, align 8, !tbaa !3
  %50 = load ptr, ptr %4, align 8, !tbaa !10
  %51 = getelementptr inbounds nuw %struct.mbedtls_md_context_t, ptr %50, i32 0, i32 0
  %52 = load ptr, ptr %51, align 8, !tbaa !12
  %53 = getelementptr inbounds nuw %struct.mbedtls_md_info_t, ptr %52, i32 0, i32 3
  %54 = load i8, ptr %53, align 1, !tbaa !19
  %55 = zext i8 %54 to i64
  %56 = call i32 @mbedtls_md_update(ptr noundef %48, ptr noundef %49, i64 noundef %55)
  store i32 %56, ptr %6, align 4, !tbaa !21
  %57 = icmp ne i32 %56, 0
  br i1 %57, label %58, label %60

58:                                               ; preds = %47
  %59 = load i32, ptr %6, align 4, !tbaa !21
  store i32 %59, ptr %3, align 4
  store i32 1, ptr %9, align 4
  br label %77

60:                                               ; preds = %47
  %61 = load ptr, ptr %4, align 8, !tbaa !10
  %62 = getelementptr inbounds [32 x i8], ptr %7, i64 0, i64 0
  %63 = load ptr, ptr %4, align 8, !tbaa !10
  %64 = getelementptr inbounds nuw %struct.mbedtls_md_context_t, ptr %63, i32 0, i32 0
  %65 = load ptr, ptr %64, align 8, !tbaa !12
  %66 = getelementptr inbounds nuw %struct.mbedtls_md_info_t, ptr %65, i32 0, i32 2
  %67 = load i8, ptr %66, align 4, !tbaa !25
  %68 = zext i8 %67 to i64
  %69 = call i32 @mbedtls_md_update(ptr noundef %61, ptr noundef %62, i64 noundef %68)
  store i32 %69, ptr %6, align 4, !tbaa !21
  %70 = icmp ne i32 %69, 0
  br i1 %70, label %71, label %73

71:                                               ; preds = %60
  %72 = load i32, ptr %6, align 4, !tbaa !21
  store i32 %72, ptr %3, align 4
  store i32 1, ptr %9, align 4
  br label %77

73:                                               ; preds = %60
  %74 = load ptr, ptr %4, align 8, !tbaa !10
  %75 = load ptr, ptr %5, align 8, !tbaa !3
  %76 = call i32 @mbedtls_md_finish(ptr noundef %74, ptr noundef %75)
  store i32 %76, ptr %3, align 4
  store i32 1, ptr %9, align 4
  br label %77

77:                                               ; preds = %73, %71, %58, %45, %39, %22
  call void @llvm.lifetime.end.p0(i64 8, ptr %8) #9
  call void @llvm.lifetime.end.p0(i64 32, ptr %7) #9
  call void @llvm.lifetime.end.p0(i64 4, ptr %6) #9
  %78 = load i32, ptr %3, align 4
  ret i32 %78
}