; Function Attrs: mustprogress uwtable
define hidden i32 @mbedtls_md_hmac_finish(ptr noundef captures(address_is_null) %0, ptr noundef %1) local_unnamed_addr #5 {
  %3 = alloca [32 x i8], align 16
  call void @llvm.lifetime.start.p0(i64 32, ptr nonnull %3) #12
  %4 = icmp eq ptr %0, null
  br i1 %4, label %mbedtls_md_finish.exit.thread, label %5

5:                                                ; preds = %2
  %6 = load ptr, ptr %0, align 8, !tbaa !3
  %7 = icmp eq ptr %6, null
  br i1 %7, label %mbedtls_md_finish.exit.thread, label %8

8:                                                ; preds = %5
  %9 = getelementptr inbounds nuw i8, ptr %0, i64 16
  %10 = load ptr, ptr %9, align 8, !tbaa !14
  %11 = icmp eq ptr %10, null
  br i1 %11, label %mbedtls_md_finish.exit.thread, label %12

12:                                               ; preds = %8
  %13 = getelementptr inbounds nuw i8, ptr %6, i64 13
  %14 = load i8, ptr %13, align 1, !tbaa !15
  %15 = zext i8 %14 to i64
  %16 = getelementptr inbounds nuw i8, ptr %10, i64 %15
  %17 = getelementptr inbounds nuw i8, ptr %6, i64 8
  %18 = load i32, ptr %17, align 8, !tbaa !10
  switch i32 %18, label %mbedtls_md_finish.exit.thread [
    i32 2, label %19
    i32 3, label %23
    i32 4, label %27
  ]

19:                                               ; preds = %12
  %20 = getelementptr inbounds nuw i8, ptr %0, i64 8
  %21 = load ptr, ptr %20, align 8, !tbaa !9
  %22 = call i32 @mbedtls_sha1_finish(ptr noundef %21, ptr noundef nonnull %3)
  br label %mbedtls_md_finish.exit

23:                                               ; preds = %12
  %24 = getelementptr inbounds nuw i8, ptr %0, i64 8
  %25 = load ptr, ptr %24, align 8, !tbaa !9
  %26 = call i32 @mbedtls_sha256_finish(ptr noundef %25, ptr noundef nonnull %3)
  br label %mbedtls_md_finish.exit

27:                                               ; preds = %12
  %28 = getelementptr inbounds nuw i8, ptr %0, i64 8
  %29 = load ptr, ptr %28, align 8, !tbaa !9
  %30 = call i32 @mbedtls_sha256_finish(ptr noundef %29, ptr noundef nonnull %3)
  br label %mbedtls_md_finish.exit

mbedtls_md_finish.exit:                           ; preds = %19, %23, %27
  %.0.i = phi i32 [ %30, %27 ], [ %26, %23 ], [ %22, %19 ]
  %.not = icmp eq i32 %.0.i, 0
  br i1 %.not, label %31, label %mbedtls_md_finish.exit.thread

31:                                               ; preds = %mbedtls_md_finish.exit
  %32 = load ptr, ptr %0, align 8, !tbaa !3
  %33 = icmp eq ptr %32, null
  br i1 %33, label %mbedtls_md_finish.exit.thread, label %34

34:                                               ; preds = %31
  %35 = getelementptr inbounds nuw i8, ptr %32, i64 8
  %36 = load i32, ptr %35, align 8, !tbaa !10
  switch i32 %36, label %mbedtls_md_finish.exit.thread [
    i32 2, label %37
    i32 3, label %41
    i32 4, label %45
  ]

37:                                               ; preds = %34
  %38 = getelementptr inbounds nuw i8, ptr %0, i64 8
  %39 = load ptr, ptr %38, align 8, !tbaa !9
  %40 = call i32 @mbedtls_sha1_starts(ptr noundef %39)
  br label %mbedtls_md_starts.exit

41:                                               ; preds = %34
  %42 = getelementptr inbounds nuw i8, ptr %0, i64 8
  %43 = load ptr, ptr %42, align 8, !tbaa !9
  %44 = call i32 @mbedtls_sha256_starts(ptr noundef %43, i32 noundef 1)
  br label %mbedtls_md_starts.exit

45:                                               ; preds = %34
  %46 = getelementptr inbounds nuw i8, ptr %0, i64 8
  %47 = load ptr, ptr %46, align 8, !tbaa !9
  %48 = call i32 @mbedtls_sha256_starts(ptr noundef %47, i32 noundef 0)
  br label %mbedtls_md_starts.exit

mbedtls_md_starts.exit:                           ; preds = %37, %41, %45
  %.0.i28 = phi i32 [ %48, %45 ], [ %44, %41 ], [ %40, %37 ]
  %.not25 = icmp eq i32 %.0.i28, 0
  br i1 %.not25, label %49, label %mbedtls_md_finish.exit.thread

49:                                               ; preds = %mbedtls_md_starts.exit
  %50 = load ptr, ptr %0, align 8, !tbaa !3
  %51 = getelementptr inbounds nuw i8, ptr %50, i64 13
  %52 = load i8, ptr %51, align 1, !tbaa !15
  %53 = zext i8 %52 to i64
  %54 = getelementptr inbounds nuw i8, ptr %50, i64 8
  %55 = load i32, ptr %54, align 8, !tbaa !10
  switch i32 %55, label %mbedtls_md_finish.exit.thread [
    i32 2, label %56
    i32 3, label %60
    i32 4, label %64
  ]

56:                                               ; preds = %49
  %57 = getelementptr inbounds nuw i8, ptr %0, i64 8
  %58 = load ptr, ptr %57, align 8, !tbaa !9
  %59 = call i32 @mbedtls_sha1_update(ptr noundef %58, ptr noundef nonnull %16, i64 noundef %53)
  br label %mbedtls_md_update.exit

60:                                               ; preds = %49
  %61 = getelementptr inbounds nuw i8, ptr %0, i64 8
  %62 = load ptr, ptr %61, align 8, !tbaa !9
  %63 = call i32 @mbedtls_sha256_update(ptr noundef %62, ptr noundef nonnull %16, i64 noundef %53)
  br label %mbedtls_md_update.exit

64:                                               ; preds = %49
  %65 = getelementptr inbounds nuw i8, ptr %0, i64 8
  %66 = load ptr, ptr %65, align 8, !tbaa !9
  %67 = call i32 @mbedtls_sha256_update(ptr noundef %66, ptr noundef nonnull %16, i64 noundef %53)
  br label %mbedtls_md_update.exit

mbedtls_md_update.exit:                           ; preds = %56, %60, %64
  %.0.i29 = phi i32 [ %67, %64 ], [ %63, %60 ], [ %59, %56 ]
  %.not26 = icmp eq i32 %.0.i29, 0
  br i1 %.not26, label %68, label %mbedtls_md_finish.exit.thread

68:                                               ; preds = %mbedtls_md_update.exit
  %69 = load ptr, ptr %0, align 8, !tbaa !3
  %70 = getelementptr inbounds nuw i8, ptr %69, i64 12
  %71 = load i8, ptr %70, align 4, !tbaa !16
  %72 = zext i8 %71 to i64
  %73 = call i32 @mbedtls_md_update(ptr noundef nonnull %0, ptr noundef nonnull %3, i64 noundef %72)
  %.not27 = icmp eq i32 %73, 0
  br i1 %.not27, label %74, label %mbedtls_md_finish.exit.thread

74:                                               ; preds = %68
  %75 = call i32 @mbedtls_md_finish(ptr noundef nonnull %0, ptr noundef %1)
  br label %mbedtls_md_finish.exit.thread

mbedtls_md_finish.exit.thread:                    ; preds = %49, %34, %31, %12, %68, %mbedtls_md_update.exit, %mbedtls_md_starts.exit, %mbedtls_md_finish.exit, %2, %5, %8, %74
  %.0 = phi i32 [ %75, %74 ], [ -20736, %8 ], [ -20736, %5 ], [ -20736, %2 ], [ %.0.i, %mbedtls_md_finish.exit ], [ %.0.i28, %mbedtls_md_starts.exit ], [ %.0.i29, %mbedtls_md_update.exit ], [ %73, %68 ], [ -20736, %12 ], [ -20736, %31 ], [ -20736, %34 ], [ -20736, %49 ]
  call void @llvm.lifetime.end.p0(i64 32, ptr nonnull %3) #12
  ret i32 %.0
}